target datalayout = "e-m:e-p270:32:32-p271:32:32-p272:64:64-i64:64-i128:128-f80:128-n8:16:32:64-S128"
target triple = "x86_64-pc-linux-gnu"

%struct._packet_info = type { ptr, ptr, i32, i32, %struct.nstime_t, %struct.nstime_t, %struct.nstime_t, i8, ptr, ptr, ptr, ptr, %struct._address, %struct._address, %struct._address, %struct._address, %struct._address, %struct._address, i32, ptr, i8, [3 x i8], %struct.anon, i32, i32, i32, i32, ptr, i8, ptr, ptr, i16, i16, i32, i32, i16, i32, i32, ptr, ptr, ptr, i8, i8, i16, i16, i16, i32, i16, i16, ptr, ptr, ptr, ptr, ptr, i32, i32 }
%struct.nstime_t = type { i64, i32 }
%struct._address = type { i32, i32, ptr, ptr }
%struct.anon = type { i8, [3 x i8] }

@hf_docsis_regreqmp_sid = internal global i32 0, align 4
@hf_docsis_regreqmp_number_of_fragments = internal global i32 0, align 4
@hf_docsis_regreqmp_fragment_sequence_number = internal global i32 0, align 4
@ett_docsis_regreqmp = internal global i32 0, align 4
@proto_docsis_regreqmp = internal global i32 0, align 4
@docsis_tlv_handle = internal global ptr null, align 8
@.str.2214 = private unnamed_addr constant [20 x i8] c"REG-REQ-MP Message:\00", align 1

; Function Attrs: null_pointer_is_valid sspstrong uwtable
define internal i32 @dissect_regreqmp(ptr noundef %0, ptr noundef %1, ptr noundef %2, ptr noundef %3) #0 {
  %5 = alloca ptr, align 8
  %6 = alloca ptr, align 8
  %7 = alloca ptr, align 8
  %8 = alloca ptr, align 8
  %9 = alloca ptr, align 8
  %10 = alloca ptr, align 8
  %11 = alloca ptr, align 8
  store ptr %0, ptr %5, align 8
  store ptr %1, ptr %6, align 8
  store ptr %2, ptr %7, align 8
  store ptr %3, ptr %8, align 8
  call void @llvm.lifetime.start.p0(i64 8, ptr %9) #6
  call void @llvm.lifetime.start.p0(i64 8, ptr %10) #6
  call void @llvm.lifetime.start.p0(i64 8, ptr %11) #6
  %12 = load ptr, ptr %6, align 8
  %13 = getelementptr inbounds nuw %struct._packet_info, ptr %12, i32 0, i32 1
  %14 = load ptr, ptr %13, align 8
  call void @col_set_str(ptr noundef %14, i32 noundef 25, ptr noundef @.str.2214)
  %15 = load ptr, ptr %7, align 8
  %16 = load i32, ptr @proto_docsis_regreqmp, align 4
  %17 = load ptr, ptr %5, align 8
  %18 = call ptr @proto_tree_add_item(ptr noundef %15, i32 noundef %16, ptr noundef %17, i32 noundef 0, i32 noundef -1, i32 noundef 0)
  store ptr %18, ptr %9, align 8
  %19 = load ptr, ptr %9, align 8
  %20 = load i32, ptr @ett_docsis_regreqmp, align 4
  %21 = call ptr @proto_item_add_subtree(ptr noundef %19, i32 noundef %20)
  store ptr %21, ptr %10, align 8
  %22 = load ptr, ptr %10, align 8
  %23 = load i32, ptr @hf_docsis_regreqmp_sid, align 4
  %24 = load ptr, ptr %5, align 8
  %25 = call ptr @proto_tree_add_item(ptr noundef %22, i32 noundef %23, ptr noundef %24, i32 noundef 0, i32 noundef 2, i32 noundef 0)
  %26 = load ptr, ptr %10, align 8
  %27 = load i32, ptr @hf_docsis_regreqmp_number_of_fragments, align 4
  %28 = load ptr, ptr %5, align 8
  %29 = call ptr @proto_tree_add_item(ptr noundef %26, i32 noundef %27, ptr noundef %28, i32 noundef 2, i32 noundef 1, i32 noundef 0)
  %30 = load ptr, ptr %10, align 8
  %31 = load i32, ptr @hf_docsis_regreqmp_fragment_sequence_number, align 4
  %32 = load ptr, ptr %5, align 8
  %33 = call ptr @proto_tree_add_item(ptr noundef %30, i32 noundef %31, ptr noundef %32, i32 noundef 3, i32 noundef 1, i32 noundef 0)
  %34 = load ptr, ptr %5, align 8
  %35 = call ptr @tvb_new_subset_remaining(ptr noundef %34, i32 noundef 4)
  store ptr %35, ptr %11, align 8
  %36 = load ptr, ptr @docsis_tlv_handle, align 8
  %37 = load ptr, ptr %11, align 8
  %38 = load ptr, ptr %6, align 8
  %39 = load ptr, ptr %10, align 8
  %40 = call i32 @call_dissector(ptr noundef %36, ptr noundef %37, ptr noundef %38, ptr noundef %39)
  %41 = load ptr, ptr %5, align 8
  %42 = call i32 @tvb_captured_length(ptr noundef %41)
  call void @llvm.lifetime.end.p0(i64 8, ptr %11) #6
  call void @llvm.lifetime.end.p0(i64 8, ptr %10) #6
  call void @llvm.lifetime.end.p0(i64 8, ptr %9) #6
  ret i32 %42
}