; Function Attrs: null_pointer_is_valid sspstrong uwtable
define internal i32 @dissect_regreqmp(ptr noundef %0, ptr noundef %1, ptr noundef %2, ptr readnone captures(none) %3) #0 {
  %5 = getelementptr inbounds nuw i8, ptr %1, i64 8
  %6 = load ptr, ptr %5, align 8
  tail call void @col_set_str(ptr noundef %6, i32 noundef 25, ptr noundef nonnull @.str.2214)
  %7 = load i32, ptr @proto_docsis_regreqmp, align 4
  %8 = tail call ptr @proto_tree_add_item(ptr noundef %2, i32 noundef %7, ptr noundef %0, i32 noundef 0, i32 noundef -1, i32 noundef 0)
  %9 = load i32, ptr @ett_docsis_regreqmp, align 4
  %10 = tail call ptr @proto_item_add_subtree(ptr noundef %8, i32 noundef %9)
  %11 = load i32, ptr @hf_docsis_regreqmp_sid, align 4
  %12 = tail call ptr @proto_tree_add_item(ptr noundef %10, i32 noundef %11, ptr noundef %0, i32 noundef 0, i32 noundef 2, i32 noundef 0)
  %13 = load i32, ptr @hf_docsis_regreqmp_number_of_fragments, align 4
  %14 = tail call ptr @proto_tree_add_item(ptr noundef %10, i32 noundef %13, ptr noundef %0, i32 noundef 2, i32 noundef 1, i32 noundef 0)
  %15 = load i32, ptr @hf_docsis_regreqmp_fragment_sequence_number, align 4
  %16 = tail call ptr @proto_tree_add_item(ptr noundef %10, i32 noundef %15, ptr noundef %0, i32 noundef 3, i32 noundef 1, i32 noundef 0)
  %17 = tail call ptr @tvb_new_subset_remaining(ptr noundef %0, i32 noundef 4)
  %18 = load ptr, ptr @docsis_tlv_handle, align 8
  %19 = tail call i32 @call_dissector(ptr noundef %18, ptr noundef %17, ptr noundef %1, ptr noundef %10)
  %20 = tail call i32 @tvb_captured_length(ptr noundef %0)
  ret i32 %20
}